target datalayout = "e-m:e-p270:32:32-p271:32:32-p272:64:64-i64:64-i128:128-f80:128-n8:16:32:64-S128"
target triple = "x86_64-pc-linux-gnu"

%struct.GtkRequisition = type { i32, i32 }
%struct._GtkWidget = type { %struct.GtkObject, i16, i8, i8, ptr, ptr, %struct.GtkRequisition, %struct.GtkAllocation, ptr, ptr }
%struct.GtkObject = type { %struct.GObject, i32 }
%struct.GObject = type { %struct.GTypeInstance, i32, ptr }
%struct.GTypeInstance = type { ptr }
%struct.GtkAllocation = type { i32, i32, i32, i32 }
%struct.GdkRectangle = type { i32, i32, i32, i32 }

@fp_gtk_paint_box_gap = internal global ptr null, align 8
@gtk2_white_pixmap = internal global ptr null, align 8
@gtk2_black_pixmap = internal global ptr null, align 8
@gtk2_widget = internal global ptr null, align 8

; Function Attrs: nounwind uwtable
define hidden void @gtk2_paint_box_gap(i32 noundef %0, i32 noundef %1, i32 noundef %2, ptr noundef %3, i32 noundef %4, i32 noundef %5, i32 noundef %6, i32 noundef %7, i32 noundef %8, i32 noundef %9, i32 noundef %10) #0 {
  %12 = alloca i32, align 4
  %13 = alloca i32, align 4
  %14 = alloca i32, align 4
  %15 = alloca ptr, align 8
  %16 = alloca i32, align 4
  %17 = alloca i32, align 4
  %18 = alloca i32, align 4
  %19 = alloca i32, align 4
  %20 = alloca i32, align 4
  %21 = alloca i32, align 4
  %22 = alloca i32, align 4
  %23 = alloca %struct.GdkRectangle, align 4
  store i32 %0, ptr %12, align 4
  store i32 %1, ptr %13, align 4
  store i32 %2, ptr %14, align 4
  store ptr %3, ptr %15, align 8
  store i32 %4, ptr %16, align 4
  store i32 %5, ptr %17, align 4
  store i32 %6, ptr %18, align 4
  store i32 %7, ptr %19, align 4
  store i32 %8, ptr %20, align 4
  store i32 %9, ptr %21, align 4
  store i32 %10, ptr %22, align 4
  %24 = getelementptr inbounds %struct.GdkRectangle, ptr %23, i32 0, i32 0
  %25 = load i32, ptr %16, align 4
  store i32 %25, ptr %24, align 4
  %26 = getelementptr inbounds %struct.GdkRectangle, ptr %23, i32 0, i32 1
  %27 = load i32, ptr %17, align 4
  store i32 %27, ptr %26, align 4
  %28 = getelementptr inbounds %struct.GdkRectangle, ptr %23, i32 0, i32 2
  %29 = load i32, ptr %18, align 4
  store i32 %29, ptr %28, align 4
  %30 = getelementptr inbounds %struct.GdkRectangle, ptr %23, i32 0, i32 3
  %31 = load i32, ptr %19, align 4
  store i32 %31, ptr %30, align 4
  %32 = load i32, ptr %12, align 4
  %33 = call ptr @gtk2_get_widget(i32 noundef %32)
  store ptr %33, ptr @gtk2_widget, align 8
  %34 = load ptr, ptr @fp_gtk_paint_box_gap, align 8
  %35 = load ptr, ptr @gtk2_widget, align 8
  %36 = getelementptr inbounds %struct._GtkWidget, ptr %35, i32 0, i32 5
  %37 = load ptr, ptr %36, align 8
  %38 = load ptr, ptr @gtk2_white_pixmap, align 8
  %39 = load i32, ptr %13, align 4
  %40 = load i32, ptr %14, align 4
  %41 = load ptr, ptr @gtk2_widget, align 8
  %42 = load ptr, ptr %15, align 8
  %43 = load i32, ptr %16, align 4
  %44 = load i32, ptr %17, align 4
  %45 = load i32, ptr %18, align 4
  %46 = load i32, ptr %19, align 4
  %47 = load i32, ptr %20, align 4
  %48 = load i32, ptr %21, align 4
  %49 = load i32, ptr %22, align 4
  call void %34(ptr noundef %37, ptr noundef %38, i32 noundef %39, i32 noundef %40, ptr noundef %23, ptr noundef %41, ptr noundef %42, i32 noundef %43, i32 noundef %44, i32 noundef %45, i32 noundef %46, i32 noundef %47, i32 noundef %48, i32 noundef %49)
  %50 = load ptr, ptr @fp_gtk_paint_box_gap, align 8
  %51 = load ptr, ptr @gtk2_widget, align 8
  %52 = getelementptr inbounds %struct._GtkWidget, ptr %51, i32 0, i32 5
  %53 = load ptr, ptr %52, align 8
  %54 = load ptr, ptr @gtk2_black_pixmap, align 8
  %55 = load i32, ptr %13, align 4
  %56 = load i32, ptr %14, align 4
  %57 = load ptr, ptr @gtk2_widget, align 8
  %58 = load ptr, ptr %15, align 8
  %59 = load i32, ptr %16, align 4
  %60 = load i32, ptr %17, align 4
  %61 = load i32, ptr %18, align 4
  %62 = load i32, ptr %19, align 4
  %63 = load i32, ptr %20, align 4
  %64 = load i32, ptr %21, align 4
  %65 = load i32, ptr %22, align 4
  call void %50(ptr noundef %53, ptr noundef %54, i32 noundef %55, i32 noundef %56, ptr noundef %23, ptr noundef %57, ptr noundef %58, i32 noundef %59, i32 noundef %60, i32 noundef %61, i32 noundef %62, i32 noundef %63, i32 noundef %64, i32 noundef %65)
  ret void
}