; Function Attrs: nounwind uwtable
define hidden void @gtk2_paint_box_gap(i32 noundef %0, i32 noundef %1, i32 noundef %2, ptr noundef %3, i32 noundef %4, i32 noundef %5, i32 noundef %6, i32 noundef %7, i32 noundef %8, i32 noundef %9, i32 noundef %10) #0 {
  %12 = alloca %struct.GdkRectangle, align 4
  store i32 %4, ptr %12, align 4
  %13 = getelementptr inbounds i8, ptr %12, i64 4
  store i32 %5, ptr %13, align 4
  %14 = getelementptr inbounds i8, ptr %12, i64 8
  store i32 %6, ptr %14, align 4
  %15 = getelementptr inbounds i8, ptr %12, i64 12
  store i32 %7, ptr %15, align 4
  %16 = tail call fastcc ptr @gtk2_get_widget(i32 noundef %0)
  store ptr %16, ptr @gtk2_widget, align 8
  %17 = load ptr, ptr @fp_gtk_paint_box_gap, align 8
  %18 = getelementptr inbounds i8, ptr %16, i64 48
  %19 = load ptr, ptr %18, align 8
  %20 = load ptr, ptr @gtk2_white_pixmap, align 8
  call void %17(ptr noundef %19, ptr noundef %20, i32 noundef %1, i32 noundef %2, ptr noundef nonnull %12, ptr noundef %16, ptr noundef %3, i32 noundef %4, i32 noundef %5, i32 noundef %6, i32 noundef %7, i32 noundef %8, i32 noundef %9, i32 noundef %10) #18
  %21 = load ptr, ptr @fp_gtk_paint_box_gap, align 8
  %22 = load ptr, ptr @gtk2_widget, align 8
  %23 = getelementptr inbounds i8, ptr %22, i64 48
  %24 = load ptr, ptr %23, align 8
  %25 = load ptr, ptr @gtk2_black_pixmap, align 8
  call void %21(ptr noundef %24, ptr noundef %25, i32 noundef %1, i32 noundef %2, ptr noundef nonnull %12, ptr noundef %22, ptr noundef %3, i32 noundef %4, i32 noundef %5, i32 noundef %6, i32 noundef %7, i32 noundef %8, i32 noundef %9, i32 noundef %10) #18
  ret void
}